; Function Attrs: mustprogress uwtable
define dso_local noundef ptr @_ZN4Luau6TxnLog11changeScopeEPKNS_4TypeENS_7NotNullINS_5ScopeEEE(ptr noundef nonnull align 8 dereferenceable(128) %0, ptr noundef %1, ptr %2) local_unnamed_addr #3 align 2 {
  %4 = tail call noundef ptr @_ZN4Luau6TxnLog5queueEPKNS_4TypeE(ptr noundef nonnull align 8 dereferenceable(128) %0, ptr noundef %1)
  %5 = tail call noundef ptr @_ZN4Luau9asMutableEPKNS_4TypeE(ptr noundef %4)
  %.not.i.i.i = icmp eq ptr %5, null
  br i1 %.not.i.i.i, label %10, label %6

6:                                                ; preds = %3
  %7 = load i32, ptr %5, align 8
  %8 = icmp eq i32 %7, 2
  br i1 %8, label %_ZN4Luau10getMutableINS_8FreeTypeEEEPT_PNS_11PendingTypeE.exit, label %10

_ZN4Luau10getMutableINS_8FreeTypeEEEPT_PNS_11PendingTypeE.exit: ; preds = %6
  %9 = getelementptr inbounds i8, ptr %5, i64 24
  br label %_ZN4Luau10getMutableINS_12FunctionTypeEEEPT_PNS_11PendingTypeE.exit.thread.sink.split

10:                                               ; preds = %6, %3
  %11 = tail call noundef ptr @_ZN4Luau9asMutableEPKNS_4TypeE(ptr noundef %4)
  %.not.i.i.i16 = icmp eq ptr %11, null
  br i1 %.not.i.i.i16, label %16, label %12

12:                                               ; preds = %10
  %13 = load i32, ptr %11, align 8
  %14 = icmp eq i32 %13, 9
  br i1 %14, label %_ZN4Luau10getMutableINS_9TableTypeEEEPT_PNS_11PendingTypeE.exit, label %16

_ZN4Luau10getMutableINS_9TableTypeEEEPT_PNS_11PendingTypeE.exit: ; preds = %12
  %15 = getelementptr inbounds i8, ptr %11, i64 96
  br label %_ZN4Luau10getMutableINS_12FunctionTypeEEEPT_PNS_11PendingTypeE.exit.thread.sink.split

16:                                               ; preds = %12, %10
  %17 = tail call noundef ptr @_ZN4Luau9asMutableEPKNS_4TypeE(ptr noundef %4)
  %.not.i.i.i17 = icmp eq ptr %17, null
  br i1 %.not.i.i.i17, label %_ZN4Luau10getMutableINS_12FunctionTypeEEEPT_PNS_11PendingTypeE.exit.thread, label %18

18:                                               ; preds = %16
  %19 = load i32, ptr %17, align 8
  %20 = icmp eq i32 %19, 8
  br i1 %20, label %_ZN4Luau10getMutableINS_12FunctionTypeEEEPT_PNS_11PendingTypeE.exit, label %_ZN4Luau10getMutableINS_12FunctionTypeEEEPT_PNS_11PendingTypeE.exit.thread

_ZN4Luau10getMutableINS_12FunctionTypeEEEPT_PNS_11PendingTypeE.exit: ; preds = %18
  %21 = getelementptr inbounds i8, ptr %17, i64 216
  br label %_ZN4Luau10getMutableINS_12FunctionTypeEEEPT_PNS_11PendingTypeE.exit.thread.sink.split

_ZN4Luau10getMutableINS_12FunctionTypeEEEPT_PNS_11PendingTypeE.exit.thread.sink.split: ; preds = %_ZN4Luau10getMutableINS_8FreeTypeEEEPT_PNS_11PendingTypeE.exit, %_ZN4Luau10getMutableINS_12FunctionTypeEEEPT_PNS_11PendingTypeE.exit, %_ZN4Luau10getMutableINS_9TableTypeEEEPT_PNS_11PendingTypeE.exit
  %.sink = phi ptr [ %15, %_ZN4Luau10getMutableINS_9TableTypeEEEPT_PNS_11PendingTypeE.exit ], [ %21, %_ZN4Luau10getMutableINS_12FunctionTypeEEEPT_PNS_11PendingTypeE.exit ], [ %9, %_ZN4Luau10getMutableINS_8FreeTypeEEEPT_PNS_11PendingTypeE.exit ]
  store ptr %2, ptr %.sink, align 8
  br label %_ZN4Luau10getMutableINS_12FunctionTypeEEEPT_PNS_11PendingTypeE.exit.thread

_ZN4Luau10getMutableINS_12FunctionTypeEEEPT_PNS_11PendingTypeE.exit.thread: ; preds = %_ZN4Luau10getMutableINS_12FunctionTypeEEEPT_PNS_11PendingTypeE.exit.thread.sink.split, %16, %18
  ret ptr %4
}